; ModuleID = 'source-C-CXX/19/1246.c'
source_filename = "source-C-CXX/19/1246.c"
target datalayout = "e-m:e-p270:32:32-p271:32:32-p272:64:64-i64:64-f80:128-n8:16:32:64-S128"
target triple = "x86_64-pc-linux-gnu"

@.str = private unnamed_addr constant [5 x i8] c"%s%s\00", align 1

; Function Attrs: nofree nounwind sspstrong uwtable
define dso_local i32 @main() local_unnamed_addr #0 {
  %1 = alloca [11 x i8], align 1
  %2 = alloca [4 x i8], align 1
  %3 = getelementptr inbounds [11 x i8], [11 x i8]* %1, i64 0, i64 0
  call void @llvm.lifetime.start.p0i8(i64 11, i8* nonnull %3) #5
  %4 = getelementptr inbounds [4 x i8], [4 x i8]* %2, i64 0, i64 0
  call void @llvm.lifetime.start.p0i8(i64 4, i8* nonnull %4) #5
  %5 = call i32 (i8*, ...) @__isoc99_scanf(i8* getelementptr inbounds ([5 x i8], [5 x i8]* @.str, i64 0, i64 0), i8* nonnull %3, i8* nonnull %4)
  %6 = icmp eq i32 %5, -1
  br i1 %6, label %131, label %7

7:                                                ; preds = %0
  %8 = getelementptr inbounds [4 x i8], [4 x i8]* %2, i64 0, i64 1
  %9 = getelementptr inbounds [4 x i8], [4 x i8]* %2, i64 0, i64 2
  br label %10

10:                                               ; preds = %7, %127
  %11 = call i64 @strlen(i8* noundef nonnull %3) #6
  %12 = trunc i64 %11 to i32
  %13 = icmp sgt i32 %12, 0
  br i1 %13, label %14, label %46

14:                                               ; preds = %10
  %15 = and i64 %11, 4294967295
  %16 = add nsw i64 %15, -1
  %17 = and i64 %11, 3
  %18 = icmp ult i64 %16, 3
  br i1 %18, label %21, label %19

19:                                               ; preds = %14
  %20 = sub nsw i64 %15, %17
  br label %50

21:                                               ; preds = %50, %14
  %22 = phi i32 [ undef, %14 ], [ %88, %50 ]
  %23 = phi i64 [ 0, %14 ], [ %89, %50 ]
  %24 = phi i32 [ 0, %14 ], [ %88, %50 ]
  %25 = icmp eq i64 %17, 0
  br i1 %25, label %41, label %26

26:                                               ; preds = %21, %26
  %27 = phi i64 [ %38, %26 ], [ %23, %21 ]
  %28 = phi i32 [ %37, %26 ], [ %24, %21 ]
  %29 = phi i64 [ %39, %26 ], [ %17, %21 ]
  %30 = getelementptr inbounds [11 x i8], [11 x i8]* %1, i64 0, i64 %27
  %31 = load i8, i8* %30, align 1, !tbaa !5
  %32 = sext i32 %28 to i64
  %33 = getelementptr inbounds [11 x i8], [11 x i8]* %1, i64 0, i64 %32
  %34 = load i8, i8* %33, align 1, !tbaa !5
  %35 = icmp sgt i8 %31, %34
  %36 = trunc i64 %27 to i32
  %37 = select i1 %35, i32 %36, i32 %28
  %38 = add nuw nsw i64 %27, 1
  %39 = add i64 %29, -1
  %40 = icmp eq i64 %39, 0
  br i1 %40, label %41, label %26, !llvm.loop !8

41:                                               ; preds = %26, %21
  %42 = phi i32 [ %22, %21 ], [ %37, %26 ]
  %43 = icmp slt i32 %42, 0
  br i1 %43, label %44, label %46

44:                                               ; preds = %41
  %45 = add nsw i32 %42, 1
  br label %92

46:                                               ; preds = %10, %41
  %47 = phi i32 [ %42, %41 ], [ 0, %10 ]
  %48 = add nuw i32 %47, 1
  %49 = zext i32 %48 to i64
  br label %108

50:                                               ; preds = %50, %19
  %51 = phi i64 [ 0, %19 ], [ %89, %50 ]
  %52 = phi i32 [ 0, %19 ], [ %88, %50 ]
  %53 = phi i64 [ %20, %19 ], [ %90, %50 ]
  %54 = getelementptr inbounds [11 x i8], [11 x i8]* %1, i64 0, i64 %51
  %55 = load i8, i8* %54, align 1, !tbaa !5
  %56 = sext i32 %52 to i64
  %57 = getelementptr inbounds [11 x i8], [11 x i8]* %1, i64 0, i64 %56
  %58 = load i8, i8* %57, align 1, !tbaa !5
  %59 = icmp sgt i8 %55, %58
  %60 = trunc i64 %51 to i32
  %61 = select i1 %59, i32 %60, i32 %52
  %62 = or i64 %51, 1
  %63 = getelementptr inbounds [11 x i8], [11 x i8]* %1, i64 0, i64 %62
  %64 = load i8, i8* %63, align 1, !tbaa !5
  %65 = sext i32 %61 to i64
  %66 = getelementptr inbounds [11 x i8], [11 x i8]* %1, i64 0, i64 %65
  %67 = load i8, i8* %66, align 1, !tbaa !5
  %68 = icmp sgt i8 %64, %67
  %69 = trunc i64 %62 to i32
  %70 = select i1 %68, i32 %69, i32 %61
  %71 = or i64 %51, 2
  %72 = getelementptr inbounds [11 x i8], [11 x i8]* %1, i64 0, i64 %71
  %73 = load i8, i8* %72, align 1, !tbaa !5
  %74 = sext i32 %70 to i64
  %75 = getelementptr inbounds [11 x i8], [11 x i8]* %1, i64 0, i64 %74
  %76 = load i8, i8* %75, align 1, !tbaa !5
  %77 = icmp sgt i8 %73, %76
  %78 = trunc i64 %71 to i32
  %79 = select i1 %77, i32 %78, i32 %70
  %80 = or i64 %51, 3
  %81 = getelementptr inbounds [11 x i8], [11 x i8]* %1, i64 0, i64 %80
  %82 = load i8, i8* %81, align 1, !tbaa !5
  %83 = sext i32 %79 to i64
  %84 = getelementptr inbounds [11 x i8], [11 x i8]* %1, i64 0, i64 %83
  %85 = load i8, i8* %84, align 1, !tbaa !5
  %86 = icmp sgt i8 %82, %85
  %87 = trunc i64 %80 to i32
  %88 = select i1 %86, i32 %87, i32 %79
  %89 = add nuw nsw i64 %51, 4
  %90 = add i64 %53, -4
  %91 = icmp eq i64 %90, 0
  br i1 %91, label %21, label %50, !llvm.loop !10

92:                                               ; preds = %108, %44
  %93 = phi i32 [ %42, %44 ], [ %47, %108 ]
  %94 = phi i32 [ %45, %44 ], [ %48, %108 ]
  %95 = load i8, i8* %4, align 1, !tbaa !5
  %96 = sext i8 %95 to i32
  %97 = call i32 @putchar(i32 %96)
  %98 = load i8, i8* %8, align 1, !tbaa !5
  %99 = sext i8 %98 to i32
  %100 = call i32 @putchar(i32 %99)
  %101 = load i8, i8* %9, align 1, !tbaa !5
  %102 = sext i8 %101 to i32
  %103 = call i32 @putchar(i32 %102)
  %104 = add nsw i32 %12, -1
  %105 = icmp ne i32 %93, %104
  %106 = icmp slt i32 %94, %12
  %107 = select i1 %105, i1 %106, i1 false
  br i1 %107, label %116, label %127

108:                                              ; preds = %46, %108
  %109 = phi i64 [ 0, %46 ], [ %114, %108 ]
  %110 = getelementptr inbounds [11 x i8], [11 x i8]* %1, i64 0, i64 %109
  %111 = load i8, i8* %110, align 1, !tbaa !5
  %112 = sext i8 %111 to i32
  %113 = call i32 @putchar(i32 %112)
  %114 = add nuw nsw i64 %109, 1
  %115 = icmp eq i64 %114, %49
  br i1 %115, label %92, label %108, !llvm.loop !12

116:                                              ; preds = %92
  %117 = sext i32 %94 to i64
  br label %118

118:                                              ; preds = %116, %118
  %119 = phi i64 [ %117, %116 ], [ %124, %118 ]
  %120 = getelementptr inbounds [11 x i8], [11 x i8]* %1, i64 0, i64 %119
  %121 = load i8, i8* %120, align 1, !tbaa !5
  %122 = sext i8 %121 to i32
  %123 = call i32 @putchar(i32 %122)
  %124 = add nsw i64 %119, 1
  %125 = trunc i64 %124 to i32
  %126 = icmp eq i32 %125, %12
  br i1 %126, label %127, label %118, !llvm.loop !13

127:                                              ; preds = %118, %92
  %128 = call i32 @putchar(i32 10)
  %129 = call i32 (i8*, ...) @__isoc99_scanf(i8* getelementptr inbounds ([5 x i8], [5 x i8]* @.str, i64 0, i64 0), i8* nonnull %3, i8* nonnull %4)
  %130 = icmp eq i32 %129, -1
  br i1 %130, label %131, label %10, !llvm.loop !14

131:                                              ; preds = %127, %0
  call void @llvm.lifetime.end.p0i8(i64 4, i8* nonnull %4) #5
  call void @llvm.lifetime.end.p0i8(i64 11, i8* nonnull %3) #5
  ret i32 0
}

; Function Attrs: argmemonly mustprogress nofree nosync nounwind willreturn
declare void @llvm.lifetime.start.p0i8(i64 immarg, i8* nocapture) #1

; Function Attrs: nofree nounwind
declare noundef i32 @__isoc99_scanf(i8* nocapture noundef readonly, ...) local_unnamed_addr #2

; Function Attrs: argmemonly mustprogress nofree nounwind readonly willreturn
declare i64 @strlen(i8* nocapture) local_unnamed_addr #3

; Function Attrs: argmemonly mustprogress nofree nosync nounwind willreturn
declare void @llvm.lifetime.end.p0i8(i64 immarg, i8* nocapture) #1

; Function Attrs: nofree nounwind
declare noundef i32 @putchar(i32 noundef) local_unnamed_addr #4


!llvm.module.flags = !{!0, !1, !2, !3}
!llvm.ident = !{!4}

!0 = !{i32 1, !"wchar_size", i32 4}
!1 = !{i32 7, !"PIC Level", i32 2}
!2 = !{i32 7, !"PIE Level", i32 2}
!3 = !{i32 7, !"uwtable", i32 1}
!4 = !{!"clang version 13.0.0"}
!5 = !{!6, !6, i64 0}
!6 = !{!"omnipotent char", !7, i64 0}
!7 = !{!"Simple C/C++ TBAA"}
!8 = distinct !{!8, !9}
!9 = !{!"llvm.loop.unroll.disable"}
!10 = distinct !{!10, !11}
!11 = !{!"llvm.loop.mustprogress"}
!12 = distinct !{!12, !11}
!13 = distinct !{!13, !11}
!14 = distinct !{!14, !11}
